; Function Attrs: nofree norecurse nosync nounwind memory(argmem: readwrite) uwtable
define internal void @blend_harmonic_14bit(ptr noundef readonly captures(none) %0, i64 noundef %1, ptr noundef readonly captures(none) %2, i64 noundef %3, ptr noundef writeonly captures(none) %4, i64 noundef %5, i64 noundef %6, i64 noundef %7, ptr noundef readonly captures(none) %8, ptr readnone captures(none) %9) #6 {
  %11 = getelementptr inbounds nuw i8, ptr %8, i64 8
  %12 = load double, ptr %11, align 8, !tbaa !70
  %13 = fptrunc nsz double %12 to float
  %14 = lshr i64 %5, 1
  %15 = lshr i64 %1, 1
  %16 = lshr i64 %3, 1
  %17 = icmp sgt i64 %7, 0
  %18 = icmp sgt i64 %6, 0
  %or.cond = and i1 %17, %18
  br i1 %or.cond, label %.preheader.us, label %._crit_edge47

.preheader.us:                                    ; preds = %10, %._crit_edge.us
  %indvars.iv51 = phi i64 [ %indvars.iv.next52, %._crit_edge.us ], [ 0, %10 ]
  %.03845.us = phi ptr [ %39, %._crit_edge.us ], [ %4, %10 ]
  %.03944.us = phi ptr [ %41, %._crit_edge.us ], [ %2, %10 ]
  %.04043.us = phi ptr [ %40, %._crit_edge.us ], [ %0, %10 ]
  br label %19

19:                                               ; preds = %.preheader.us, %._crit_edge55
  %indvars.iv = phi i64 [ 0, %.preheader.us ], [ %indvars.iv.next, %._crit_edge55 ]
  %20 = getelementptr inbounds nuw i16, ptr %.04043.us, i64 %indvars.iv
  %21 = load i16, ptr %20, align 2, !tbaa !85
  %22 = uitofp i16 %21 to float
  %23 = icmp eq i16 %21, 0
  %24 = getelementptr inbounds nuw i16, ptr %.03944.us, i64 %indvars.iv
  %25 = load i16, ptr %24, align 2, !tbaa !85
  %26 = icmp eq i16 %25, 0
  %or.cond57 = select i1 %23, i1 %26, i1 false
  br i1 %or.cond57, label %._crit_edge55, label %._crit_edge

._crit_edge:                                      ; preds = %19
  %27 = zext i16 %21 to i64
  %28 = shl nuw nsw i64 %27, 1
  %29 = zext i16 %25 to i64
  %30 = mul nuw nsw i64 %28, %29
  %31 = add nuw nsw i64 %29, %27
  %32 = udiv i64 %30, %31
  %33 = sub nsw i64 %32, %27
  %34 = sitofp i64 %33 to float
  br label %._crit_edge55

._crit_edge55:                                    ; preds = %19, %._crit_edge
  %35 = phi float [ %34, %._crit_edge ], [ 0.000000e+00, %19 ]
  %36 = tail call nsz float @llvm.fmuladd.f32(float %35, float %13, float %22)
  %37 = fptoui float %36 to i16
  %38 = getelementptr inbounds nuw i16, ptr %.03845.us, i64 %indvars.iv
  store i16 %37, ptr %38, align 2, !tbaa !85
  %indvars.iv.next = add nuw nsw i64 %indvars.iv, 1
  %exitcond.not = icmp eq i64 %indvars.iv.next, %6
  br i1 %exitcond.not, label %._crit_edge.us, label %19, !llvm.loop !476

._crit_edge.us:                                   ; preds = %._crit_edge55
  %39 = getelementptr inbounds nuw i16, ptr %.03845.us, i64 %14
  %40 = getelementptr inbounds nuw i16, ptr %.04043.us, i64 %15
  %41 = getelementptr inbounds nuw i16, ptr %.03944.us, i64 %16
  %indvars.iv.next52 = add nuw nsw i64 %indvars.iv51, 1
  %exitcond54.not = icmp eq i64 %indvars.iv.next52, %7
  br i1 %exitcond54.not, label %._crit_edge47, label %.preheader.us, !llvm.loop !477

._crit_edge47:                                    ; preds = %._crit_edge.us, %10
  ret void
}